target datalayout = "e-m:e-p270:32:32-p271:32:32-p272:64:64-i64:64-i128:128-f80:128-n8:16:32:64-S128"
target triple = "x86_64-unknown-linux-gnu"

%struct.QemuMutex = type { %union.pthread_mutex_t, i8 }
%union.pthread_mutex_t = type { %struct.__pthread_mutex_s }
%struct.__pthread_mutex_s = type { i32, i32, i32, i32, i32, i16, i16, %struct.__pthread_internal_list }
%struct.__pthread_internal_list = type { ptr, ptr }
%struct.NotifierWithReturnList = type { %struct.anon.4 }
%struct.anon.4 = type { ptr }
%struct.QemuEvent = type { i32, i8 }
%struct.PrecopyNotifyData = type { i32, ptr }
%struct.RAMState = type { [2 x %struct.PageSearchStatus], i32, i64, ptr, i64, i32, i32, i64, i64, i64, i64, i64, i64, i8, i8, i64, i64, i64, %struct.QemuMutex, ptr, %struct.QemuMutex, %struct.anon.5, i32 }
%struct.PageSearchStatus = type { ptr, ptr, ptr, i64, i8, i8, i64, i64 }
%struct.anon.5 = type { ptr, ptr }
%struct.MigrationState = type { %struct.DeviceState, %struct.QemuThread, ptr, ptr, ptr, ptr, %struct.QemuSemaphore, ptr, %struct.QemuMutex, %struct.QemuSemaphore, i64, double, i64, i64, i64, %struct.MigrationParameters, i32, %struct.anon.7, double, i64, i64, i64, i64, i64, [23 x i8], i64, i32, i8, i8, i8, i8, %struct.QemuSemaphore, %struct.QemuSemaphore, %struct.QemuSemaphore, %struct.QemuEvent, i64, ptr, ptr, %struct.QemuMutex, i8, i8, i8, i8, %struct.QemuSemaphore, i8, i8, i8, i8, ptr, ptr, i8, i8 }
%struct.DeviceState = type { %struct.Object, ptr, ptr, i8, i8, i64, ptr, i32, i8, ptr, %struct.NamedGPIOListHead, %struct.NamedClockListHead, %struct.BusStateHead, i32, i32, i32, %struct.ResettableState, ptr, %struct.MemReentrancyGuard }
%struct.Object = type { ptr, ptr, ptr, i32, ptr }
%struct.NamedGPIOListHead = type { ptr }
%struct.NamedClockListHead = type { ptr }
%struct.BusStateHead = type { ptr }
%struct.ResettableState = type { i32, i8, i8 }
%struct.MemReentrancyGuard = type { i8 }
%struct.QemuThread = type { i64 }
%struct.MigrationParameters = type { i8, i64, i8, i64, i8, i64, i8, i64, i8, i8, i8, i8, i8, i8, i8, i8, i8, i8, i8, i8, i8, i8, i8, i8, ptr, ptr, ptr, i8, i64, i8, i64, i8, i64, i8, i32, i8, i8, i8, i8, i8, i64, i8, i64, i8, i8, i8, i32, i8, i8, i8, i8, i8, ptr, i8, i64, i8, i64, i8, i32 }
%struct.anon.7 = type { ptr, %struct.QemuThread, i8, %struct.QemuSemaphore, %struct.QemuSemaphore }
%struct.QemuSemaphore = type { %struct.QemuMutex, %struct.QemuCond, i32 }
%struct.QemuCond = type { %union.pthread_cond_t, i8 }
%union.pthread_cond_t = type { %struct.__pthread_cond_s }
%struct.__pthread_cond_s = type { %union.__atomic_wide_counter, %union.__atomic_wide_counter, [2 x i32], [2 x i32], i32, i32, [2 x i32] }
%union.__atomic_wide_counter = type { i64 }
%struct.rcu_reader_data = type { i64, i8, i32, %struct.anon.12, %struct.NotifierList }
%struct.anon.12 = type { ptr, ptr }
%struct.NotifierList = type { %struct.anon.13 }
%struct.anon.13 = type { ptr }

@.str = private unnamed_addr constant [24 x i8] c"../qemu/migration/ram.c\00", align 1
@precopy_notifier_list = internal global %struct.NotifierWithReturnList zeroinitializer, align 8
@.str.28 = private unnamed_addr constant [97 x i8] c"/home/dtcxzyw/WorkSpace/Projects/compilers/llvm-opt-benchmark/bench/qemu/qemu/include/qemu/rcu.h\00", align 1
@__func__.rcu_read_lock = private unnamed_addr constant [14 x i8] c"rcu_read_lock\00", align 1
@rcu_gp_ctr = external global i64, align 8
@.str.60 = private unnamed_addr constant [25 x i8] c"p_rcu_reader->depth != 0\00", align 1
@__PRETTY_FUNCTION__.rcu_read_unlock = private unnamed_addr constant [27 x i8] c"void rcu_read_unlock(void)\00", align 1
@__func__.rcu_read_unlock = private unnamed_addr constant [16 x i8] c"rcu_read_unlock\00", align 1
@rcu_gp_event = external global %struct.QemuEvent, align 4

; Function Attrs: nounwind sspstrong uwtable
define internal void @rcu_read_unlock() #0 {
entry:
  %p_rcu_reader = alloca ptr, align 8
  %.atomictmp = alloca i64, align 8
  %tmp = alloca i8, align 1
  %atomic-temp = alloca i8, align 1
  %.atomictmp23 = alloca i8, align 1
  %call = call ptr @get_ptr_rcu_reader()
  store ptr %call, ptr %p_rcu_reader, align 8
  %0 = load ptr, ptr %p_rcu_reader, align 8
  %depth = getelementptr inbounds %struct.rcu_reader_data, ptr %0, i32 0, i32 2
  %1 = load i32, ptr %depth, align 4
  %cmp = icmp ne i32 %1, 0
  br i1 %cmp, label %if.then, label %if.else

if.then:                                          ; preds = %entry
  br label %if.end

if.else:                                          ; preds = %entry
  call void @__assert_fail(ptr noundef @.str.60, ptr noundef @.str.28, i32 noundef 101, ptr noundef @__PRETTY_FUNCTION__.rcu_read_unlock) #14
  unreachable

if.end:                                           ; preds = %if.then
  %2 = load ptr, ptr %p_rcu_reader, align 8
  %depth1 = getelementptr inbounds %struct.rcu_reader_data, ptr %2, i32 0, i32 2
  %3 = load i32, ptr %depth1, align 4
  %dec = add i32 %3, -1
  store i32 %dec, ptr %depth1, align 4
  %cmp2 = icmp ugt i32 %dec, 0
  br i1 %cmp2, label %if.then3, label %if.end4

if.then3:                                         ; preds = %if.end
  br label %if.end25

if.end4:                                          ; preds = %if.end
  br label %do.body

do.body:                                          ; preds = %if.end4
  br label %while.cond

while.cond:                                       ; preds = %do.end, %do.body
  br i1 false, label %while.body, label %while.end

while.body:                                       ; preds = %while.cond
  br label %do.body5

do.body5:                                         ; preds = %while.body
  call void @g_assertion_message_expr(ptr noundef null, ptr noundef @.str.28, i32 noundef 111, ptr noundef @__func__.rcu_read_unlock, ptr noundef null) #12
  unreachable

do.end:                                           ; No predecessors!
  br label %while.cond

while.end:                                        ; preds = %while.cond
  %4 = load ptr, ptr %p_rcu_reader, align 8
  %ctr = getelementptr inbounds %struct.rcu_reader_data, ptr %4, i32 0, i32 0
  store i64 0, ptr %.atomictmp, align 8
  %5 = load i64, ptr %.atomictmp, align 8
  store atomic i64 %5, ptr %ctr release, align 8
  br label %do.end6

do.end6:                                          ; preds = %while.end
  call void asm sideeffect "", "~{memory},~{dirflag},~{fpsr},~{flags}"() #13, !srcloc !83
  fence seq_cst
  br label %while.cond7

while.cond7:                                      ; preds = %do.end10, %do.end6
  br i1 false, label %while.body8, label %while.end11

while.body8:                                      ; preds = %while.cond7
  br label %do.body9

do.body9:                                         ; preds = %while.body8
  call void @g_assertion_message_expr(ptr noundef null, ptr noundef @.str.28, i32 noundef 115, ptr noundef @__func__.rcu_read_unlock, ptr noundef null) #12
  unreachable

do.end10:                                         ; No predecessors!
  br label %while.cond7

while.end11:                                      ; preds = %while.cond7
  %6 = load ptr, ptr %p_rcu_reader, align 8
  %waiting = getelementptr inbounds %struct.rcu_reader_data, ptr %6, i32 0, i32 1
  %7 = load atomic i8, ptr %waiting monotonic, align 8
  store i8 %7, ptr %atomic-temp, align 1
  %8 = load i8, ptr %atomic-temp, align 1
  %tobool = trunc i8 %8 to i1
  %frombool = zext i1 %tobool to i8
  store i8 %frombool, ptr %tmp, align 1
  %9 = load i8, ptr %tmp, align 1
  %tobool12 = trunc i8 %9 to i1
  %lnot = xor i1 %tobool12, true
  %lnot13 = xor i1 %lnot, true
  %lnot.ext = zext i1 %lnot13 to i32
  %conv = sext i32 %lnot.ext to i64
  %tobool14 = icmp ne i64 %conv, 0
  br i1 %tobool14, label %if.then15, label %if.end25

if.then15:                                        ; preds = %while.end11
  br label %do.body16

do.body16:                                        ; preds = %if.then15
  br label %while.cond17

while.cond17:                                     ; preds = %do.end20, %do.body16
  br i1 false, label %while.body18, label %while.end21

while.body18:                                     ; preds = %while.cond17
  br label %do.body19

do.body19:                                        ; preds = %while.body18
  call void @g_assertion_message_expr(ptr noundef null, ptr noundef @.str.28, i32 noundef 116, ptr noundef @__func__.rcu_read_unlock, ptr noundef null) #12
  unreachable

do.end20:                                         ; No predecessors!
  br label %while.cond17

while.end21:                                      ; preds = %while.cond17
  %10 = load ptr, ptr %p_rcu_reader, align 8
  %waiting22 = getelementptr inbounds %struct.rcu_reader_data, ptr %10, i32 0, i32 1
  store i8 0, ptr %.atomictmp23, align 1
  %11 = load i8, ptr %.atomictmp23, align 1
  store atomic i8 %11, ptr %waiting22 monotonic, align 8
  br label %do.end24

do.end24:                                         ; preds = %while.end21
  call void @qemu_event_set(ptr noundef @rcu_gp_event)
  br label %if.end25

if.end25:                                         ; preds = %do.end24, %while.end11, %if.then3
  ret void
}

; Function Attrs: nounwind sspstrong uwtable
define dso_local i32 @precopy_notify(i32 noundef %reason, ptr noundef %errp) #0 {
entry:
  %reason.addr = alloca i32, align 4
  %errp.addr = alloca ptr, align 8
  %pnd = alloca %struct.PrecopyNotifyData, align 8
  store i32 %reason, ptr %reason.addr, align 4
  store ptr %errp, ptr %errp.addr, align 8
  %0 = load i32, ptr %reason.addr, align 4
  %reason1 = getelementptr inbounds %struct.PrecopyNotifyData, ptr %pnd, i32 0, i32 0
  store i32 %0, ptr %reason1, align 8
  %1 = load ptr, ptr %errp.addr, align 8
  %errp2 = getelementptr inbounds %struct.PrecopyNotifyData, ptr %pnd, i32 0, i32 1
  store ptr %1, ptr %errp2, align 8
  %call = call i32 @notifier_with_return_list_notify(ptr noundef @precopy_notifier_list, ptr noundef %pnd)
  ret i32 %call
}

; Function Attrs: nounwind sspstrong uwtable
define internal void @glib_autoptr_clear_RCUReadAuto(ptr noundef %_ptr) #0 {
entry:
  %_ptr.addr = alloca ptr, align 8
  store ptr %_ptr, ptr %_ptr.addr, align 8
  %0 = load ptr, ptr %_ptr.addr, align 8
  %tobool = icmp ne ptr %0, null
  br i1 %tobool, label %if.then, label %if.end

if.then:                                          ; preds = %entry
  %1 = load ptr, ptr %_ptr.addr, align 8
  call void @rcu_read_auto_unlock(ptr noundef %1)
  br label %if.end

if.end:                                           ; preds = %if.then, %entry
  ret void
}

; Function Attrs: nounwind sspstrong uwtable
define internal void @rcu_read_lock() #0 {
entry:
  %p_rcu_reader = alloca ptr, align 8
  %ctr = alloca i32, align 4
  %tmp = alloca i64, align 8
  %atomic-temp = alloca i64, align 8
  %.atomictmp = alloca i64, align 8
  %call = call ptr @get_ptr_rcu_reader()
  store ptr %call, ptr %p_rcu_reader, align 8
  %0 = load ptr, ptr %p_rcu_reader, align 8
  %depth = getelementptr inbounds %struct.rcu_reader_data, ptr %0, i32 0, i32 2
  %1 = load i32, ptr %depth, align 4
  %inc = add i32 %1, 1
  store i32 %inc, ptr %depth, align 4
  %cmp = icmp ugt i32 %1, 0
  br i1 %cmp, label %if.then, label %if.end

if.then:                                          ; preds = %entry
  br label %return

if.end:                                           ; preds = %entry
  br label %while.cond

while.cond:                                       ; preds = %do.end, %if.end
  br i1 false, label %while.body, label %while.end

while.body:                                       ; preds = %while.cond
  br label %do.body

do.body:                                          ; preds = %while.body
  call void @g_assertion_message_expr(ptr noundef null, ptr noundef @.str.28, i32 noundef 87, ptr noundef @__func__.rcu_read_lock, ptr noundef null) #12
  unreachable

do.end:                                           ; No predecessors!
  br label %while.cond

while.end:                                        ; preds = %while.cond
  %2 = load atomic i64, ptr @rcu_gp_ctr monotonic, align 8
  store i64 %2, ptr %atomic-temp, align 8
  %3 = load i64, ptr %atomic-temp, align 8
  store i64 %3, ptr %tmp, align 8
  %4 = load i64, ptr %tmp, align 8
  %conv = trunc i64 %4 to i32
  store i32 %conv, ptr %ctr, align 4
  br label %do.body1

do.body1:                                         ; preds = %while.end
  br label %while.cond2

while.cond2:                                      ; preds = %do.end5, %do.body1
  br i1 false, label %while.body3, label %while.end6

while.body3:                                      ; preds = %while.cond2
  br label %do.body4

do.body4:                                         ; preds = %while.body3
  call void @g_assertion_message_expr(ptr noundef null, ptr noundef @.str.28, i32 noundef 88, ptr noundef @__func__.rcu_read_lock, ptr noundef null) #12
  unreachable

do.end5:                                          ; No predecessors!
  br label %while.cond2

while.end6:                                       ; preds = %while.cond2
  %5 = load ptr, ptr %p_rcu_reader, align 8
  %ctr7 = getelementptr inbounds %struct.rcu_reader_data, ptr %5, i32 0, i32 0
  %6 = load i32, ptr %ctr, align 4
  %conv8 = zext i32 %6 to i64
  store i64 %conv8, ptr %.atomictmp, align 8
  %7 = load i64, ptr %.atomictmp, align 8
  store atomic i64 %7, ptr %ctr7 monotonic, align 8
  br label %do.end9

do.end9:                                          ; preds = %while.end6
  call void asm sideeffect "", "~{memory},~{dirflag},~{fpsr},~{flags}"() #13, !srcloc !77
  fence seq_cst
  br label %return

return:                                           ; preds = %do.end9, %if.then
  ret void
}

; Function Attrs: nounwind sspstrong uwtable
define internal void @rcu_read_auto_unlock(ptr noundef %r) #0 {
entry:
  %r.addr = alloca ptr, align 8
  store ptr %r, ptr %r.addr, align 8
  call void @rcu_read_unlock()
  ret void
}

; Function Attrs: nounwind sspstrong uwtable
define internal void @migration_bitmap_sync_precopy(ptr noundef %rs, i1 noundef zeroext %last_stage) #0 {
entry:
  %rs.addr = alloca ptr, align 8
  %last_stage.addr = alloca i8, align 1
  %local_err = alloca ptr, align 8
  store ptr %rs, ptr %rs.addr, align 8
  %frombool = zext i1 %last_stage to i8
  store i8 %frombool, ptr %last_stage.addr, align 1
  store ptr null, ptr %local_err, align 8
  %call = call i32 @precopy_notify(i32 noundef 1, ptr noundef %local_err)
  %tobool = icmp ne i32 %call, 0
  br i1 %tobool, label %if.then, label %if.end

if.then:                                          ; preds = %entry
  %0 = load ptr, ptr %local_err, align 8
  call void @error_report_err(ptr noundef %0)
  store ptr null, ptr %local_err, align 8
  br label %if.end

if.end:                                           ; preds = %if.then, %entry
  %1 = load ptr, ptr %rs.addr, align 8
  %2 = load i8, ptr %last_stage.addr, align 1
  %tobool1 = trunc i8 %2 to i1
  call void @migration_bitmap_sync(ptr noundef %1, i1 noundef zeroext %tobool1)
  %call2 = call i32 @precopy_notify(i32 noundef 2, ptr noundef %local_err)
  %tobool3 = icmp ne i32 %call2, 0
  br i1 %tobool3, label %if.then4, label %if.end5

if.then4:                                         ; preds = %if.end
  %3 = load ptr, ptr %local_err, align 8
  call void @error_report_err(ptr noundef %3)
  br label %if.end5

if.end5:                                          ; preds = %if.then4, %if.end
  ret void
}

; Function Attrs: nounwind sspstrong uwtable
define internal void @glib_autoptr_cleanup_RCUReadAuto(ptr noundef %_ptr) #0 {
entry:
  %_ptr.addr = alloca ptr, align 8
  store ptr %_ptr, ptr %_ptr.addr, align 8
  %0 = load ptr, ptr %_ptr.addr, align 8
  %1 = load ptr, ptr %0, align 8
  call void @glib_autoptr_clear_RCUReadAuto(ptr noundef %1)
  ret void
}

; Function Attrs: nounwind sspstrong uwtable
define internal ptr @rcu_read_auto_lock() #0 {
entry:
  call void @rcu_read_lock()
  %0 = inttoptr i64 1 to ptr
  ret ptr %0
}

; Function Attrs: nounwind sspstrong uwtable
define internal void @ram_state_pending_exact(ptr noundef %opaque, ptr noundef %must_precopy, ptr noundef %can_postcopy) #0 {
entry:
  %opaque.addr = alloca ptr, align 8
  %must_precopy.addr = alloca ptr, align 8
  %can_postcopy.addr = alloca ptr, align 8
  %s = alloca ptr, align 8
  %temp = alloca ptr, align 8
  %rs = alloca ptr, align 8
  %remaining_size = alloca i64, align 8
  %_rcu_read_auto72 = alloca ptr, align 8
  store ptr %opaque, ptr %opaque.addr, align 8
  store ptr %must_precopy, ptr %must_precopy.addr, align 8
  store ptr %can_postcopy, ptr %can_postcopy.addr, align 8
  %call = call ptr @migrate_get_current()
  store ptr %call, ptr %s, align 8
  %0 = load ptr, ptr %opaque.addr, align 8
  store ptr %0, ptr %temp, align 8
  %1 = load ptr, ptr %temp, align 8
  %2 = load ptr, ptr %1, align 8
  store ptr %2, ptr %rs, align 8
  %3 = load ptr, ptr %rs, align 8
  %migration_dirty_pages = getelementptr inbounds %struct.RAMState, ptr %3, i32 0, i32 17
  %4 = load i64, ptr %migration_dirty_pages, align 8
  %mul = mul i64 %4, 4096
  store i64 %mul, ptr %remaining_size, align 8
  %call1 = call zeroext i1 @migration_in_postcopy()
  br i1 %call1, label %if.end, label %land.lhs.true

land.lhs.true:                                    ; preds = %entry
  %5 = load i64, ptr %remaining_size, align 8
  %6 = load ptr, ptr %s, align 8
  %threshold_size = getelementptr inbounds %struct.MigrationState, ptr %6, i32 0, i32 14
  %7 = load i64, ptr %threshold_size, align 8
  %cmp = icmp ult i64 %5, %7
  br i1 %cmp, label %if.then, label %if.end

if.then:                                          ; preds = %land.lhs.true
  call void @qemu_mutex_lock_iothread_impl(ptr noundef @.str, i32 noundef 3224)
  %call2 = call ptr @rcu_read_auto_lock()
  store ptr %call2, ptr %_rcu_read_auto72, align 8
  br label %for.cond

for.cond:                                         ; preds = %for.inc, %if.then
  %8 = load ptr, ptr %_rcu_read_auto72, align 8
  %tobool = icmp ne ptr %8, null
  br i1 %tobool, label %for.body, label %for.cond.cleanup

for.cond.cleanup:                                 ; preds = %for.cond
  call void @glib_autoptr_cleanup_RCUReadAuto(ptr noundef %_rcu_read_auto72)
  br label %for.end

for.body:                                         ; preds = %for.cond
  %9 = load ptr, ptr %rs, align 8
  call void @migration_bitmap_sync_precopy(ptr noundef %9, i1 noundef zeroext false)
  br label %for.inc

for.inc:                                          ; preds = %for.body
  %10 = load ptr, ptr %_rcu_read_auto72, align 8
  call void @rcu_read_auto_unlock(ptr noundef %10)
  store ptr null, ptr %_rcu_read_auto72, align 8
  br label %for.cond, !llvm.loop !104

for.end:                                          ; preds = %for.cond.cleanup
  call void @qemu_mutex_unlock_iothread()
  %11 = load ptr, ptr %rs, align 8
  %migration_dirty_pages3 = getelementptr inbounds %struct.RAMState, ptr %11, i32 0, i32 17
  %12 = load i64, ptr %migration_dirty_pages3, align 8
  %mul4 = mul i64 %12, 4096
  store i64 %mul4, ptr %remaining_size, align 8
  br label %if.end

if.end:                                           ; preds = %for.end, %land.lhs.true, %entry
  %call5 = call zeroext i1 @migrate_postcopy_ram()
  br i1 %call5, label %if.then6, label %if.else

if.then6:                                         ; preds = %if.end
  %13 = load i64, ptr %remaining_size, align 8
  %14 = load ptr, ptr %can_postcopy.addr, align 8
  %15 = load i64, ptr %14, align 8
  %add = add i64 %15, %13
  store i64 %add, ptr %14, align 8
  br label %if.end8

if.else:                                          ; preds = %if.end
  %16 = load i64, ptr %remaining_size, align 8
  %17 = load ptr, ptr %must_precopy.addr, align 8
  %18 = load i64, ptr %17, align 8
  %add7 = add i64 %18, %16
  store i64 %add7, ptr %17, align 8
  br label %if.end8

if.end8:                                          ; preds = %if.else, %if.then6
  ret void
}