; Function Attrs: nounwind sspstrong uwtable
define internal void @ram_state_pending_exact(ptr noundef readonly captures(none) %opaque, ptr noundef captures(none) %must_precopy, ptr noundef captures(none) %can_postcopy) #0 {
entry:
  %pnd.i1.i = alloca %struct.PrecopyNotifyData, align 8
  %pnd.i.i = alloca %struct.PrecopyNotifyData, align 8
  %local_err.i = alloca ptr, align 8
  %call = tail call ptr @migrate_get_current() #18
  %0 = load ptr, ptr %opaque, align 8
  %migration_dirty_pages = getelementptr inbounds nuw i8, ptr %0, i64 224
  %1 = load i64, ptr %migration_dirty_pages, align 8
  %mul = shl i64 %1, 12
  %call1 = tail call zeroext i1 @migration_in_postcopy() #18
  br i1 %call1, label %if.end, label %land.lhs.true

land.lhs.true:                                    ; preds = %entry
  %threshold_size = getelementptr inbounds nuw i8, ptr %call, i64 512
  %2 = load i64, ptr %threshold_size, align 8
  %cmp = icmp ult i64 %mul, %2
  br i1 %cmp, label %if.then, label %if.end

if.then:                                          ; preds = %land.lhs.true
  tail call void @qemu_mutex_lock_iothread_impl(ptr noundef nonnull @.str, i32 noundef 3224) #18
  %call.i.i = tail call ptr @get_ptr_rcu_reader() #18
  %depth.i.i = getelementptr inbounds nuw i8, ptr %call.i.i, i64 12
  %3 = load i32, ptr %depth.i.i, align 4
  %inc.i.i = add i32 %3, 1
  store i32 %inc.i.i, ptr %depth.i.i, align 4
  %cmp.not.i.i = icmp eq i32 %3, 0
  br i1 %cmp.not.i.i, label %while.end.i.i, label %rcu_read_auto_lock.exit

while.end.i.i:                                    ; preds = %if.then
  %4 = load atomic i64, ptr @rcu_gp_ctr monotonic, align 8
  %conv8.i.i = and i64 %4, 4294967295
  store atomic i64 %conv8.i.i, ptr %call.i.i monotonic, align 8
  tail call void asm sideeffect "", "~{memory},~{dirflag},~{fpsr},~{flags}"() #18, !srcloc !5
  fence seq_cst
  br label %rcu_read_auto_lock.exit

rcu_read_auto_lock.exit:                          ; preds = %if.then, %while.end.i.i
  call void @llvm.lifetime.start.p0(i64 8, ptr nonnull %local_err.i)
  store ptr null, ptr %local_err.i, align 8
  call void @llvm.lifetime.start.p0(i64 16, ptr nonnull %pnd.i.i)
  store i32 1, ptr %pnd.i.i, align 8
  %errp2.i.i = getelementptr inbounds nuw i8, ptr %pnd.i.i, i64 8
  store ptr %local_err.i, ptr %errp2.i.i, align 8
  %call.i.i5 = call i32 @notifier_with_return_list_notify(ptr noundef nonnull @precopy_notifier_list, ptr noundef nonnull %pnd.i.i) #18
  call void @llvm.lifetime.end.p0(i64 16, ptr nonnull %pnd.i.i)
  %tobool.not.i = icmp eq i32 %call.i.i5, 0
  br i1 %tobool.not.i, label %if.end.i, label %if.then.i

if.then.i:                                        ; preds = %rcu_read_auto_lock.exit
  %5 = load ptr, ptr %local_err.i, align 8
  call void @error_report_err(ptr noundef %5) #18
  store ptr null, ptr %local_err.i, align 8
  br label %if.end.i

if.end.i:                                         ; preds = %if.then.i, %rcu_read_auto_lock.exit
  call fastcc void @migration_bitmap_sync(ptr noundef nonnull %0, i1 noundef zeroext false)
  call void @llvm.lifetime.start.p0(i64 16, ptr nonnull %pnd.i1.i)
  store i32 2, ptr %pnd.i1.i, align 8
  %errp2.i2.i = getelementptr inbounds nuw i8, ptr %pnd.i1.i, i64 8
  store ptr %local_err.i, ptr %errp2.i2.i, align 8
  %call.i3.i = call i32 @notifier_with_return_list_notify(ptr noundef nonnull @precopy_notifier_list, ptr noundef nonnull %pnd.i1.i) #18
  call void @llvm.lifetime.end.p0(i64 16, ptr nonnull %pnd.i1.i)
  %tobool3.not.i = icmp eq i32 %call.i3.i, 0
  br i1 %tobool3.not.i, label %migration_bitmap_sync_precopy.exit, label %if.then4.i

if.then4.i:                                       ; preds = %if.end.i
  %6 = load ptr, ptr %local_err.i, align 8
  call void @error_report_err(ptr noundef %6) #18
  br label %migration_bitmap_sync_precopy.exit

migration_bitmap_sync_precopy.exit:               ; preds = %if.end.i, %if.then4.i
  call void @llvm.lifetime.end.p0(i64 8, ptr nonnull %local_err.i)
  %call.i.i6 = call ptr @get_ptr_rcu_reader() #18
  %depth.i.i7 = getelementptr inbounds nuw i8, ptr %call.i.i6, i64 12
  %7 = load i32, ptr %depth.i.i7, align 4
  %cmp.not.i.i8 = icmp eq i32 %7, 0
  br i1 %cmp.not.i.i8, label %if.else.i.i, label %if.end.i.i

if.else.i.i:                                      ; preds = %migration_bitmap_sync_precopy.exit
  call void @__assert_fail(ptr noundef nonnull @.str.60, ptr noundef nonnull @.str.28, i32 noundef 101, ptr noundef nonnull @__PRETTY_FUNCTION__.rcu_read_unlock) #19
  unreachable

if.end.i.i:                                       ; preds = %migration_bitmap_sync_precopy.exit
  %dec.i.i = add i32 %7, -1
  store i32 %dec.i.i, ptr %depth.i.i7, align 4
  %cmp2.not.i.i = icmp eq i32 %dec.i.i, 0
  br i1 %cmp2.not.i.i, label %while.end.i.i9, label %glib_autoptr_cleanup_RCUReadAuto.exit

while.end.i.i9:                                   ; preds = %if.end.i.i
  store atomic i64 0, ptr %call.i.i6 release, align 8
  call void asm sideeffect "", "~{memory},~{dirflag},~{fpsr},~{flags}"() #18, !srcloc !10
  fence seq_cst
  %waiting.i.i = getelementptr inbounds nuw i8, ptr %call.i.i6, i64 8
  %8 = load atomic i8, ptr %waiting.i.i monotonic, align 8
  %tobool.i.i = trunc i8 %8 to i1
  br i1 %tobool.i.i, label %while.end21.i.i, label %glib_autoptr_cleanup_RCUReadAuto.exit

while.end21.i.i:                                  ; preds = %while.end.i.i9
  store atomic i8 0, ptr %waiting.i.i monotonic, align 8
  call void @qemu_event_set(ptr noundef nonnull @rcu_gp_event) #18
  br label %glib_autoptr_cleanup_RCUReadAuto.exit

glib_autoptr_cleanup_RCUReadAuto.exit:            ; preds = %while.end21.i.i, %while.end.i.i9, %if.end.i.i
  call void @qemu_mutex_unlock_iothread() #18
  %9 = load i64, ptr %migration_dirty_pages, align 8
  %mul4 = shl i64 %9, 12
  br label %if.end

if.end:                                           ; preds = %glib_autoptr_cleanup_RCUReadAuto.exit, %land.lhs.true, %entry
  %remaining_size.0 = phi i64 [ %mul, %entry ], [ %mul4, %glib_autoptr_cleanup_RCUReadAuto.exit ], [ %mul, %land.lhs.true ]
  %call5 = call zeroext i1 @migrate_postcopy_ram() #18
  %can_postcopy.must_precopy = select i1 %call5, ptr %can_postcopy, ptr %must_precopy
  %10 = load i64, ptr %can_postcopy.must_precopy, align 8
  %add7 = add i64 %10, %remaining_size.0
  store i64 %add7, ptr %can_postcopy.must_precopy, align 8
  ret void
}